target datalayout = "e-m:e-p270:32:32-p271:32:32-p272:64:64-i64:64-i128:128-f80:128-n8:16:32:64-S128"
target triple = "x86_64-unknown-linux-gnu"

%"class.icu_75::MessageFormat" = type { %"class.icu_75::Format.base", [6 x i8], %"class.icu_75::Locale", %"class.icu_75::MessagePattern", ptr, i32, ptr, i32, i32, i8, ptr, ptr, ptr, ptr, %"class.icu_75::MessageFormat::PluralSelectorProvider", %"class.icu_75::MessageFormat::PluralSelectorProvider" }
%"class.icu_75::Format.base" = type <{ %"class.icu_75::UObject", [157 x i8], [157 x i8] }>
%"class.icu_75::UObject" = type { ptr }
%"class.icu_75::Locale" = type <{ %"class.icu_75::UObject", [12 x i8], [6 x i8], [4 x i8], [2 x i8], i32, [4 x i8], ptr, [157 x i8], [3 x i8], ptr, i8, [7 x i8] }>
%"class.icu_75::MessagePattern" = type <{ %"class.icu_75::UObject", i32, [4 x i8], %"class.icu_75::UnicodeString", ptr, ptr, i32, [4 x i8], ptr, ptr, i32, i8, i8, i8, i8 }>
%"class.icu_75::UnicodeString" = type { %"class.icu_75::Replaceable", %"union.icu_75::UnicodeString::StackBufferOrFields" }
%"class.icu_75::Replaceable" = type { %"class.icu_75::UObject" }
%"union.icu_75::UnicodeString::StackBufferOrFields" = type { %struct.anon.0, [32 x i8] }
%struct.anon.0 = type { i16, i32, i32, ptr }
%"class.icu_75::MessageFormat::PluralSelectorProvider" = type <{ %"class.icu_75::PluralFormat::PluralSelector", ptr, ptr, i32, [4 x i8] }>
%"class.icu_75::PluralFormat::PluralSelector" = type { ptr }
%struct.UParseError = type { i32, i32, [16 x i16], [16 x i16] }

; Function Attrs: mustprogress uwtable
define linkonce_odr void @_ZN6icu_7514MessagePattern32clearPatternAndSetApostropheModeE29UMessagePatternApostropheMode(ptr noundef nonnull align 8 dereferenceable(127) %this, i32 noundef %mode) #1 comdat align 2 {
entry:
  %this.addr = alloca ptr, align 8
  %mode.addr = alloca i32, align 4
  store ptr %this, ptr %this.addr, align 8
  store i32 %mode, ptr %mode.addr, align 4
  %this1 = load ptr, ptr %this.addr, align 8
  call void @_ZN6icu_7514MessagePattern5clearEv(ptr noundef nonnull align 8 dereferenceable(127) %this1)
  %0 = load i32, ptr %mode.addr, align 4
  %aposMode = getelementptr inbounds %"class.icu_75::MessagePattern", ptr %this1, i32 0, i32 1
  store i32 %0, ptr %aposMode, align 8
  ret void
}

; Function Attrs: mustprogress nounwind uwtable
define linkonce_odr noundef i32 @_ZNK6icu_7514MessagePattern17getApostropheModeEv(ptr noundef nonnull align 8 dereferenceable(127) %this) #0 comdat align 2 {
entry:
  %this.addr = alloca ptr, align 8
  store ptr %this, ptr %this.addr, align 8
  %this1 = load ptr, ptr %this.addr, align 8
  %aposMode = getelementptr inbounds %"class.icu_75::MessagePattern", ptr %this1, i32 0, i32 1
  %0 = load i32, ptr %aposMode, align 8
  ret i32 %0
}

; Function Attrs: mustprogress uwtable
define void @_ZN6icu_7513MessageFormat12applyPatternERKNS_13UnicodeStringE29UMessagePatternApostropheModeP11UParseErrorR10UErrorCode(ptr noundef nonnull align 8 dereferenceable(816) %this, ptr noundef nonnull align 8 dereferenceable(64) %pattern, i32 noundef %aposMode, ptr noundef %parseError, ptr noundef nonnull align 4 dereferenceable(4) %status) unnamed_addr #1 align 2 {
entry:
  %this.addr = alloca ptr, align 8
  %pattern.addr = alloca ptr, align 8
  %aposMode.addr = alloca i32, align 4
  %parseError.addr = alloca ptr, align 8
  %status.addr = alloca ptr, align 8
  %tempParseError = alloca %struct.UParseError, align 4
  store ptr %this, ptr %this.addr, align 8
  store ptr %pattern, ptr %pattern.addr, align 8
  store i32 %aposMode, ptr %aposMode.addr, align 4
  store ptr %parseError, ptr %parseError.addr, align 8
  store ptr %status, ptr %status.addr, align 8
  %this1 = load ptr, ptr %this.addr, align 8
  %0 = load i32, ptr %aposMode.addr, align 4
  %msgPattern = getelementptr inbounds %"class.icu_75::MessageFormat", ptr %this1, i32 0, i32 3
  %call = call noundef i32 @_ZNK6icu_7514MessagePattern17getApostropheModeEv(ptr noundef nonnull align 8 dereferenceable(127) %msgPattern)
  %cmp = icmp ne i32 %0, %call
  br i1 %cmp, label %if.then, label %if.end

if.then:                                          ; preds = %entry
  %msgPattern2 = getelementptr inbounds %"class.icu_75::MessageFormat", ptr %this1, i32 0, i32 3
  %1 = load i32, ptr %aposMode.addr, align 4
  call void @_ZN6icu_7514MessagePattern32clearPatternAndSetApostropheModeE29UMessagePatternApostropheMode(ptr noundef nonnull align 8 dereferenceable(127) %msgPattern2, i32 noundef %1)
  br label %if.end

if.end:                                           ; preds = %if.then, %entry
  %2 = load ptr, ptr %pattern.addr, align 8
  %3 = load ptr, ptr %parseError.addr, align 8
  %cmp3 = icmp eq ptr %3, null
  br i1 %cmp3, label %cond.true, label %cond.false

cond.true:                                        ; preds = %if.end
  br label %cond.end

cond.false:                                       ; preds = %if.end
  %4 = load ptr, ptr %parseError.addr, align 8
  br label %cond.end

cond.end:                                         ; preds = %cond.false, %cond.true
  %cond-lvalue = phi ptr [ %tempParseError, %cond.true ], [ %4, %cond.false ]
  %5 = load ptr, ptr %status.addr, align 8
  %vtable = load ptr, ptr %this1, align 8
  %vfn = getelementptr inbounds ptr, ptr %vtable, i64 11
  %6 = load ptr, ptr %vfn, align 8
  call void %6(ptr noundef nonnull align 8 dereferenceable(816) %this1, ptr noundef nonnull align 8 dereferenceable(64) %2, ptr noundef nonnull align 4 dereferenceable(72) %cond-lvalue, ptr noundef nonnull align 4 dereferenceable(4) %5)
  ret void
}