; Function Attrs: mustprogress uwtable
define void @_ZN6icu_7513MessageFormat12applyPatternERKNS_13UnicodeStringE29UMessagePatternApostropheModeP11UParseErrorR10UErrorCode(ptr noundef nonnull align 8 dereferenceable(816) %this, ptr noundef nonnull align 8 dereferenceable(64) %pattern, i32 noundef %aposMode, ptr noundef %parseError, ptr noundef nonnull align 4 dereferenceable(4) %status) unnamed_addr #1 align 2 {
entry:
  %tempParseError = alloca %struct.UParseError, align 4
  %aposMode.i = getelementptr inbounds i8, ptr %this, i64 560
  %0 = load i32, ptr %aposMode.i, align 8
  %cmp.not = icmp eq i32 %0, %aposMode
  br i1 %cmp.not, label %if.end, label %if.then

if.then:                                          ; preds = %entry
  %msgPattern = getelementptr inbounds i8, ptr %this, i64 552
  tail call void @_ZN6icu_7514MessagePattern5clearEv(ptr noundef nonnull align 8 dereferenceable(127) %msgPattern)
  store i32 %aposMode, ptr %aposMode.i, align 8
  br label %if.end

if.end:                                           ; preds = %if.then, %entry
  %cmp3 = icmp eq ptr %parseError, null
  %cond-lvalue = select i1 %cmp3, ptr %tempParseError, ptr %parseError
  %vtable = load ptr, ptr %this, align 8
  %vfn = getelementptr inbounds i8, ptr %vtable, i64 88
  %1 = load ptr, ptr %vfn, align 8
  call void %1(ptr noundef nonnull align 8 dereferenceable(816) %this, ptr noundef nonnull align 8 dereferenceable(64) %pattern, ptr noundef nonnull align 4 dereferenceable(72) %cond-lvalue, ptr noundef nonnull align 4 dereferenceable(4) %status)
  ret void
}